(lp1
(dp2
S'p'
I15
sS's'
I15
sS'r'
I15
sa(dp3
S'ps'
p4
I15
sS'rp'
p5
I15
sS'sr'
p6
I14
sa(dp7
S'psr'
p8
I14
sS'rps'
p9
I15
sS'srp'
p10
I14
sa(dp11
S'srps'
p12
I14
sS'rpsr'
p13
I14
sS'psrp'
p14
I14
sa(dp15
S'psrps'
p16
I14
sS'rpsrp'
p17
I14
sS'srpsr'
p18
I13
sa.